target datalayout = "e-m:e-p270:32:32-p271:32:32-p272:64:64-i64:64-i128:128-f80:128-n8:16:32:64-S128"
target triple = "x86_64-pc-linux-gnu"

%struct.JsonManifestParseState = type { ptr, i32, i32, ptr, ptr, ptr, ptr, i32, ptr, i32, ptr, ptr, ptr, i8, ptr, ptr, ptr }
%struct.JsonManifestParseContext = type { ptr, ptr, ptr, ptr, ptr, ptr }

@.str.42 = private unnamed_addr constant [18 x i8] c"unexpected scalar\00", align 1
@.str.43 = private unnamed_addr constant [32 x i8] c"manifest version not an integer\00", align 1
@.str.44 = private unnamed_addr constant [28 x i8] c"unexpected manifest version\00", align 1
@.str.45 = private unnamed_addr constant [45 x i8] c"system identifier in manifest not an integer\00", align 1
@.str.52 = private unnamed_addr constant [36 x i8] c"could not parse backup manifest: %s\00", align 1

; Function Attrs: nounwind uwtable
define internal void @json_manifest_parse_failure(ptr noundef %0, ptr noundef %1) #0 {
  %3 = alloca ptr, align 8
  %4 = alloca ptr, align 8
  store ptr %0, ptr %3, align 8
  store ptr %1, ptr %4, align 8
  %5 = load ptr, ptr %3, align 8
  %6 = getelementptr inbounds nuw %struct.JsonManifestParseContext, ptr %5, i32 0, i32 5
  %7 = load ptr, ptr %6, align 8
  %8 = load ptr, ptr %3, align 8
  %9 = load ptr, ptr %4, align 8
  call void (ptr, ptr, ...) %7(ptr noundef %8, ptr noundef @.str.52, ptr noundef %9) #6
  unreachable
}

; Function Attrs: nounwind uwtable
define internal void @json_manifest_finalize_system_identifier(ptr noundef %0) #0 {
  %2 = alloca ptr, align 8
  %3 = alloca ptr, align 8
  %4 = alloca i64, align 8
  %5 = alloca ptr, align 8
  store ptr %0, ptr %2, align 8
  call void @llvm.lifetime.start.p0(i64 8, ptr %3) #5
  %6 = load ptr, ptr %2, align 8
  %7 = getelementptr inbounds nuw %struct.JsonManifestParseState, ptr %6, i32 0, i32 0
  %8 = load ptr, ptr %7, align 8
  store ptr %8, ptr %3, align 8
  call void @llvm.lifetime.start.p0(i64 8, ptr %4) #5
  call void @llvm.lifetime.start.p0(i64 8, ptr %5) #5
  %9 = load ptr, ptr %2, align 8
  %10 = getelementptr inbounds nuw %struct.JsonManifestParseState, ptr %9, i32 0, i32 15
  %11 = load ptr, ptr %10, align 8
  %12 = call i64 @strtoul(ptr noundef %11, ptr noundef %5, i32 noundef 10) #5
  store i64 %12, ptr %4, align 8
  %13 = load ptr, ptr %5, align 8
  %14 = load i8, ptr %13, align 1
  %15 = icmp ne i8 %14, 0
  br i1 %15, label %16, label %20

16:                                               ; preds = %1
  %17 = load ptr, ptr %2, align 8
  %18 = getelementptr inbounds nuw %struct.JsonManifestParseState, ptr %17, i32 0, i32 0
  %19 = load ptr, ptr %18, align 8
  call void @json_manifest_parse_failure(ptr noundef %19, ptr noundef @.str.45)
  br label %20

20:                                               ; preds = %16, %1
  %21 = load ptr, ptr %3, align 8
  %22 = getelementptr inbounds nuw %struct.JsonManifestParseContext, ptr %21, i32 0, i32 2
  %23 = load ptr, ptr %22, align 8
  %24 = load ptr, ptr %3, align 8
  %25 = load i64, ptr %4, align 8
  call void %23(ptr noundef %24, i64 noundef %25)
  call void @llvm.lifetime.end.p0(i64 8, ptr %5) #5
  call void @llvm.lifetime.end.p0(i64 8, ptr %4) #5
  call void @llvm.lifetime.end.p0(i64 8, ptr %3) #5
  ret void
}

; Function Attrs: nounwind uwtable
define internal void @json_manifest_finalize_version(ptr noundef %0) #0 {
  %2 = alloca ptr, align 8
  %3 = alloca ptr, align 8
  %4 = alloca i32, align 4
  %5 = alloca ptr, align 8
  store ptr %0, ptr %2, align 8
  call void @llvm.lifetime.start.p0(i64 8, ptr %3) #5
  %6 = load ptr, ptr %2, align 8
  %7 = getelementptr inbounds nuw %struct.JsonManifestParseState, ptr %6, i32 0, i32 0
  %8 = load ptr, ptr %7, align 8
  store ptr %8, ptr %3, align 8
  call void @llvm.lifetime.start.p0(i64 4, ptr %4) #5
  call void @llvm.lifetime.start.p0(i64 8, ptr %5) #5
  %9 = load ptr, ptr %2, align 8
  %10 = getelementptr inbounds nuw %struct.JsonManifestParseState, ptr %9, i32 0, i32 14
  %11 = load ptr, ptr %10, align 8
  %12 = call i64 @strtol(ptr noundef %11, ptr noundef %5, i32 noundef 10) #5
  %13 = trunc i64 %12 to i32
  store i32 %13, ptr %4, align 4
  %14 = load ptr, ptr %5, align 8
  %15 = load i8, ptr %14, align 1
  %16 = icmp ne i8 %15, 0
  br i1 %16, label %17, label %21

17:                                               ; preds = %1
  %18 = load ptr, ptr %2, align 8
  %19 = getelementptr inbounds nuw %struct.JsonManifestParseState, ptr %18, i32 0, i32 0
  %20 = load ptr, ptr %19, align 8
  call void @json_manifest_parse_failure(ptr noundef %20, ptr noundef @.str.43)
  br label %21

21:                                               ; preds = %17, %1
  %22 = load i32, ptr %4, align 4
  %23 = icmp ne i32 %22, 1
  br i1 %23, label %24, label %31

24:                                               ; preds = %21
  %25 = load i32, ptr %4, align 4
  %26 = icmp ne i32 %25, 2
  br i1 %26, label %27, label %31

27:                                               ; preds = %24
  %28 = load ptr, ptr %2, align 8
  %29 = getelementptr inbounds nuw %struct.JsonManifestParseState, ptr %28, i32 0, i32 0
  %30 = load ptr, ptr %29, align 8
  call void @json_manifest_parse_failure(ptr noundef %30, ptr noundef @.str.44)
  br label %31

31:                                               ; preds = %27, %24, %21
  %32 = load ptr, ptr %3, align 8
  %33 = getelementptr inbounds nuw %struct.JsonManifestParseContext, ptr %32, i32 0, i32 1
  %34 = load ptr, ptr %33, align 8
  %35 = load ptr, ptr %3, align 8
  %36 = load i32, ptr %4, align 4
  call void %34(ptr noundef %35, i32 noundef %36)
  call void @llvm.lifetime.end.p0(i64 8, ptr %5) #5
  call void @llvm.lifetime.end.p0(i64 4, ptr %4) #5
  call void @llvm.lifetime.end.p0(i64 8, ptr %3) #5
  ret void
}

; Function Attrs: nounwind uwtable
define internal i32 @json_manifest_scalar(ptr noundef %0, ptr noundef %1, i32 noundef %2) #0 {
  %4 = alloca ptr, align 8
  %5 = alloca ptr, align 8
  %6 = alloca i32, align 4
  %7 = alloca ptr, align 8
  store ptr %0, ptr %4, align 8
  store ptr %1, ptr %5, align 8
  store i32 %2, ptr %6, align 4
  call void @llvm.lifetime.start.p0(i64 8, ptr %7) #5
  %8 = load ptr, ptr %4, align 8
  store ptr %8, ptr %7, align 8
  %9 = load ptr, ptr %7, align 8
  %10 = getelementptr inbounds nuw %struct.JsonManifestParseState, ptr %9, i32 0, i32 1
  %11 = load i32, ptr %10, align 8
  switch i32 %11, label %80 [
    i32 3, label %12
    i32 4, label %19
    i32 8, label %26
    i32 12, label %55
    i32 13, label %74
  ]

12:                                               ; preds = %3
  %13 = load ptr, ptr %5, align 8
  %14 = load ptr, ptr %7, align 8
  %15 = getelementptr inbounds nuw %struct.JsonManifestParseState, ptr %14, i32 0, i32 14
  store ptr %13, ptr %15, align 8
  %16 = load ptr, ptr %7, align 8
  call void @json_manifest_finalize_version(ptr noundef %16)
  %17 = load ptr, ptr %7, align 8
  %18 = getelementptr inbounds nuw %struct.JsonManifestParseState, ptr %17, i32 0, i32 1
  store i32 2, ptr %18, align 8
  br label %84

19:                                               ; preds = %3
  %20 = load ptr, ptr %5, align 8
  %21 = load ptr, ptr %7, align 8
  %22 = getelementptr inbounds nuw %struct.JsonManifestParseState, ptr %21, i32 0, i32 15
  store ptr %20, ptr %22, align 8
  %23 = load ptr, ptr %7, align 8
  call void @json_manifest_finalize_system_identifier(ptr noundef %23)
  %24 = load ptr, ptr %7, align 8
  %25 = getelementptr inbounds nuw %struct.JsonManifestParseState, ptr %24, i32 0, i32 1
  store i32 2, ptr %25, align 8
  br label %84

26:                                               ; preds = %3
  %27 = load ptr, ptr %7, align 8
  %28 = getelementptr inbounds nuw %struct.JsonManifestParseState, ptr %27, i32 0, i32 2
  %29 = load i32, ptr %28, align 4
  switch i32 %29, label %52 [
    i32 0, label %30
    i32 1, label %34
    i32 2, label %38
    i32 3, label %42
    i32 4, label %44
    i32 5, label %48
  ]

30:                                               ; preds = %26
  %31 = load ptr, ptr %5, align 8
  %32 = load ptr, ptr %7, align 8
  %33 = getelementptr inbounds nuw %struct.JsonManifestParseState, ptr %32, i32 0, i32 3
  store ptr %31, ptr %33, align 8
  br label %52

34:                                               ; preds = %26
  %35 = load ptr, ptr %5, align 8
  %36 = load ptr, ptr %7, align 8
  %37 = getelementptr inbounds nuw %struct.JsonManifestParseState, ptr %36, i32 0, i32 4
  store ptr %35, ptr %37, align 8
  br label %52

38:                                               ; preds = %26
  %39 = load ptr, ptr %5, align 8
  %40 = load ptr, ptr %7, align 8
  %41 = getelementptr inbounds nuw %struct.JsonManifestParseState, ptr %40, i32 0, i32 5
  store ptr %39, ptr %41, align 8
  br label %52

42:                                               ; preds = %26
  %43 = load ptr, ptr %5, align 8
  call void @pfree(ptr noundef %43)
  br label %52

44:                                               ; preds = %26
  %45 = load ptr, ptr %5, align 8
  %46 = load ptr, ptr %7, align 8
  %47 = getelementptr inbounds nuw %struct.JsonManifestParseState, ptr %46, i32 0, i32 6
  store ptr %45, ptr %47, align 8
  br label %52

48:                                               ; preds = %26
  %49 = load ptr, ptr %5, align 8
  %50 = load ptr, ptr %7, align 8
  %51 = getelementptr inbounds nuw %struct.JsonManifestParseState, ptr %50, i32 0, i32 8
  store ptr %49, ptr %51, align 8
  br label %52

52:                                               ; preds = %26, %48, %44, %42, %38, %34, %30
  %53 = load ptr, ptr %7, align 8
  %54 = getelementptr inbounds nuw %struct.JsonManifestParseState, ptr %53, i32 0, i32 1
  store i32 7, ptr %54, align 8
  br label %84

55:                                               ; preds = %3
  %56 = load ptr, ptr %7, align 8
  %57 = getelementptr inbounds nuw %struct.JsonManifestParseState, ptr %56, i32 0, i32 9
  %58 = load i32, ptr %57, align 8
  switch i32 %58, label %71 [
    i32 0, label %59
    i32 1, label %63
    i32 2, label %67
  ]

59:                                               ; preds = %55
  %60 = load ptr, ptr %5, align 8
  %61 = load ptr, ptr %7, align 8
  %62 = getelementptr inbounds nuw %struct.JsonManifestParseState, ptr %61, i32 0, i32 10
  store ptr %60, ptr %62, align 8
  br label %71

63:                                               ; preds = %55
  %64 = load ptr, ptr %5, align 8
  %65 = load ptr, ptr %7, align 8
  %66 = getelementptr inbounds nuw %struct.JsonManifestParseState, ptr %65, i32 0, i32 11
  store ptr %64, ptr %66, align 8
  br label %71

67:                                               ; preds = %55
  %68 = load ptr, ptr %5, align 8
  %69 = load ptr, ptr %7, align 8
  %70 = getelementptr inbounds nuw %struct.JsonManifestParseState, ptr %69, i32 0, i32 12
  store ptr %68, ptr %70, align 8
  br label %71

71:                                               ; preds = %55, %67, %63, %59
  %72 = load ptr, ptr %7, align 8
  %73 = getelementptr inbounds nuw %struct.JsonManifestParseState, ptr %72, i32 0, i32 1
  store i32 11, ptr %73, align 8
  br label %84

74:                                               ; preds = %3
  %75 = load ptr, ptr %7, align 8
  %76 = getelementptr inbounds nuw %struct.JsonManifestParseState, ptr %75, i32 0, i32 1
  store i32 1, ptr %76, align 8
  %77 = load ptr, ptr %5, align 8
  %78 = load ptr, ptr %7, align 8
  %79 = getelementptr inbounds nuw %struct.JsonManifestParseState, ptr %78, i32 0, i32 16
  store ptr %77, ptr %79, align 8
  br label %84

80:                                               ; preds = %3
  %81 = load ptr, ptr %7, align 8
  %82 = getelementptr inbounds nuw %struct.JsonManifestParseState, ptr %81, i32 0, i32 0
  %83 = load ptr, ptr %82, align 8
  call void @json_manifest_parse_failure(ptr noundef %83, ptr noundef @.str.42)
  br label %84

84:                                               ; preds = %80, %74, %71, %52, %19, %12
  call void @llvm.lifetime.end.p0(i64 8, ptr %7) #5
  ret i32 0
}