; Function Attrs: nounwind uwtable
define internal noundef i32 @json_manifest_scalar(ptr noundef captures(none) %0, ptr noundef %1, i32 %2) #0 {
  %4 = alloca ptr, align 8
  %5 = alloca ptr, align 8
  %6 = getelementptr inbounds nuw i8, ptr %0, i64 8
  %7 = load i32, ptr %6, align 8
  switch i32 %7, label %65 [
    i32 3, label %8
    i32 4, label %27
    i32 8, label %39
    i32 12, label %54
    i32 13, label %63
  ]

8:                                                ; preds = %3
  %9 = getelementptr inbounds nuw i8, ptr %0, i64 104
  store ptr %1, ptr %9, align 8
  %10 = load ptr, ptr %0, align 8
  call void @llvm.lifetime.start.p0(i64 8, ptr nonnull %5) #8
  %11 = call i64 @strtol(ptr noundef %1, ptr noundef nonnull %5, i32 noundef 10) #8
  %12 = trunc i64 %11 to i32
  %13 = load ptr, ptr %5, align 8
  %14 = load i8, ptr %13, align 1
  %.not.i = icmp eq i8 %14, 0
  br i1 %.not.i, label %19, label %15

15:                                               ; preds = %8
  %16 = load ptr, ptr %0, align 8
  %17 = getelementptr inbounds nuw i8, ptr %16, i64 40
  %18 = load ptr, ptr %17, align 8
  tail call void (ptr, ptr, ...) %18(ptr noundef %16, ptr noundef nonnull @.str.52, ptr noundef nonnull @.str.43) #9
  unreachable

19:                                               ; preds = %8
  %20 = add i32 %12, -3
  %or.cond.i = icmp ult i32 %20, -2
  br i1 %or.cond.i, label %21, label %json_manifest_finalize_version.exit

21:                                               ; preds = %19
  %22 = load ptr, ptr %0, align 8
  %23 = getelementptr inbounds nuw i8, ptr %22, i64 40
  %24 = load ptr, ptr %23, align 8
  tail call void (ptr, ptr, ...) %24(ptr noundef %22, ptr noundef nonnull @.str.52, ptr noundef nonnull @.str.44) #9
  unreachable

json_manifest_finalize_version.exit:              ; preds = %19
  %25 = getelementptr inbounds nuw i8, ptr %10, i64 8
  %26 = load ptr, ptr %25, align 8
  tail call void %26(ptr noundef %10, i32 noundef %12) #8
  call void @llvm.lifetime.end.p0(i64 8, ptr nonnull %5) #8
  store i32 2, ptr %6, align 8
  br label %69

27:                                               ; preds = %3
  %28 = getelementptr inbounds nuw i8, ptr %0, i64 112
  store ptr %1, ptr %28, align 8
  %29 = load ptr, ptr %0, align 8
  call void @llvm.lifetime.start.p0(i64 8, ptr nonnull %4) #8
  %30 = call i64 @strtoul(ptr noundef %1, ptr noundef nonnull %4, i32 noundef 10) #8
  %31 = load ptr, ptr %4, align 8
  %32 = load i8, ptr %31, align 1
  %.not.i35 = icmp eq i8 %32, 0
  br i1 %.not.i35, label %json_manifest_finalize_system_identifier.exit, label %33

33:                                               ; preds = %27
  %34 = load ptr, ptr %0, align 8
  %35 = getelementptr inbounds nuw i8, ptr %34, i64 40
  %36 = load ptr, ptr %35, align 8
  tail call void (ptr, ptr, ...) %36(ptr noundef %34, ptr noundef nonnull @.str.52, ptr noundef nonnull @.str.45) #9
  unreachable

json_manifest_finalize_system_identifier.exit:    ; preds = %27
  %37 = getelementptr inbounds nuw i8, ptr %29, i64 16
  %38 = load ptr, ptr %37, align 8
  tail call void %38(ptr noundef %29, i64 noundef %30) #8
  call void @llvm.lifetime.end.p0(i64 8, ptr nonnull %4) #8
  store i32 2, ptr %6, align 8
  br label %69

39:                                               ; preds = %3
  %40 = getelementptr inbounds nuw i8, ptr %0, i64 12
  %41 = load i32, ptr %40, align 4
  switch i32 %41, label %53 [
    i32 0, label %42
    i32 1, label %44
    i32 2, label %46
    i32 3, label %48
    i32 4, label %49
    i32 5, label %51
  ]

42:                                               ; preds = %39
  %43 = getelementptr inbounds nuw i8, ptr %0, i64 16
  store ptr %1, ptr %43, align 8
  br label %53

44:                                               ; preds = %39
  %45 = getelementptr inbounds nuw i8, ptr %0, i64 24
  store ptr %1, ptr %45, align 8
  br label %53

46:                                               ; preds = %39
  %47 = getelementptr inbounds nuw i8, ptr %0, i64 32
  store ptr %1, ptr %47, align 8
  br label %53

48:                                               ; preds = %39
  tail call void @pfree(ptr noundef %1) #8
  br label %53

49:                                               ; preds = %39
  %50 = getelementptr inbounds nuw i8, ptr %0, i64 40
  store ptr %1, ptr %50, align 8
  br label %53

51:                                               ; preds = %39
  %52 = getelementptr inbounds nuw i8, ptr %0, i64 56
  store ptr %1, ptr %52, align 8
  br label %53

53:                                               ; preds = %51, %49, %48, %46, %44, %42, %39
  store i32 7, ptr %6, align 8
  br label %69

54:                                               ; preds = %3
  %55 = getelementptr inbounds nuw i8, ptr %0, i64 64
  %56 = load i32, ptr %55, align 8
  %57 = icmp ult i32 %56, 3
  br i1 %57, label %switch.lookup, label %62

switch.lookup:                                    ; preds = %54
  %58 = shl nuw nsw i32 %56, 3
  %59 = zext nneg i32 %58 to i64
  %60 = getelementptr inbounds nuw i8, ptr %0, i64 %59
  %61 = getelementptr inbounds nuw i8, ptr %60, i64 72
  store ptr %1, ptr %61, align 8
  br label %62

62:                                               ; preds = %54, %switch.lookup
  store i32 11, ptr %6, align 8
  br label %69

63:                                               ; preds = %3
  store i32 1, ptr %6, align 8
  %64 = getelementptr inbounds nuw i8, ptr %0, i64 120
  store ptr %1, ptr %64, align 8
  br label %69

65:                                               ; preds = %3
  %66 = load ptr, ptr %0, align 8
  %67 = getelementptr inbounds nuw i8, ptr %66, i64 40
  %68 = load ptr, ptr %67, align 8
  tail call void (ptr, ptr, ...) %68(ptr noundef %66, ptr noundef nonnull @.str.52, ptr noundef nonnull @.str.42) #9
  unreachable

69:                                               ; preds = %63, %62, %53, %json_manifest_finalize_system_identifier.exit, %json_manifest_finalize_version.exit
  ret i32 0
}